ccopy_reg
_reconstructor
p1
(csrc.play
Play
p2
c__builtin__
object
p3
NtRp4
(dp5
S'body'
p6
g1
(csrc.body
Body
p7
g3
NtRp8
(dp9
S'control'
p10
I0
sS'core'
p11
g1
(csrc.body
Core
p12
g3
NtRp13
(dp14
g6
g8
sS'status'
p15
S''
sS'parent'
p16
NsS'hp'
p17
I0
sS'dietimer'
p18
NsS'glowtime'
p19
I0
sS'worldpos'
p20
(F0
F0
tp21
sS'budcolors'
p22
(dp23
((I1
I-1
tI5
tp24
S'app2'
p25
s((I0
I-1
tp26
I0
tp27
S'app0'
p28
s((I1
I0
tI4
tp29
S'app1'
p30
s((I-1
I1
tp31
I2
tp32
S'app2'
p33
s((I-1
I0
tp34
I1
tp35
S'app1'
p36
s((I0
I1
tI3
tp37
S'app0'
p38
ssS'buds'
p39
(dp40
g24
Nsg27
g1
(csrc.body
Appendage
p41
g3
NtRp42
(dp43
g6
g8
sg15
S''
sg16
g13
sS'color'
p44
S'app0'
p45
sg17
I0
sg18
Nsg19
I0
sS'appspec'
p46
g1
(csrc.mechanics
AppendageSpec
p47
g3
NtRp48
(dp49
g44
g45
sS'dedges'
p50
(lp51
I1
aI4
asbsS'x'
I0
sg22
(dp52
((I1
I-1
tI4
tp53
g45
s((I-1
I-1
tp54
I1
tp55
g45
ssg39
(dp56
g53
Nsg55
g1
(g41
g3
NtRp57
(dp58
g6
g8
sg15
S''
sg16
g42
sg44
S'app0'
p59
sg17
I0
sg18
Nsg19
I0
sg46
g1
(g47
g3
NtRp60
(dp61
g44
g59
sg50
(lp62
I2
asbsS'x'
I-1
sg22
(dp63
((I-1
I-2
tp64
I0
tp65
g59
ssg39
(dp66
g65
g1
(g41
g3
NtRp67
(dp68
g6
g8
sg15
S''
sg16
g57
sg44
S'app0'
p69
sg17
I0
sg18
Nsg19
I0
sg46
g1
(g47
g3
NtRp70
(dp71
g44
g69
sg50
(lp72
I1
asbsS'x'
I-1
sg22
(dp73
((I0
I-2
tI4
tp74
g69
ssg39
(dp75
g74
g1
(csrc.body
Brain
p76
g3
NtRp77
(dp78
g6
g8
sg15
S''
sg16
g67
sS'pulsefreq'
p79
I0
sg17
I8
sg18
Nsg19
I0
sS'x'
I0
sg22
(dp80
sg39
(dp81
sg20
(F0
F-3.4641016151377544
tp82
sS'dusts'
p83
(lp84
sS'hearttime'
p85
I0
sS'img'
p86
NsS'edgeworldpos'
p87
(F-0.75
F-3.8971143170299736
tp88
sS'lastkey'
p89
NsS'edge'
p90
I4
sS'y'
I-2
sS'growtimer'
p91
I0
sbssg20
(F-1.5
F-4.3301270189221928
tp92
sg83
(lp93
sg85
I0
sg86
Nsg87
(F-1.5
F-3.4641016151377544
tp94
sg89
Nsg90
I0
sS'y'
I-2
sg91
I0
sbssg20
(F-1.5
F-2.598076211353316
tp95
sg83
(lp96
sg85
I0
sg86
Nsg87
(F-0.75
F-2.1650635094610964
tp97
sg89
Nsg90
I1
sS'y'
I-1
sg91
I0
sbssg20
(F0
F-1.7320508075688772
tp98
sg83
(lp99
sg85
I0
sg86
Nsg87
(F0
F-0.8660254037844386
tp100
sg89
Nsg90
I0
sS'y'
I-1
sg91
I0
sbsg29
g1
(g41
g3
NtRp101
(dp102
g6
g8
sg15
S''
sg16
g13
sg44
S'app1'
p103
sg17
I0
sg18
Nsg19
I0
sg46
g1
(g47
g3
NtRp104
(dp105
g44
g103
sg50
(lp106
I3
aI4
asbsS'x'
I1
sg22
(dp107
((I2
I0
tI4
tp108
g103
s((I2
I-1
tI5
tp109
g103
ssg39
(dp110
g108
Nsg109
g1
(g41
g3
NtRp111
(dp112
g6
g8
sg15
S''
sg16
g101
sg44
S'app1'
p113
sg17
I0
sg18
Nsg19
I0
sg46
g1
(g47
g3
NtRp114
(dp115
g44
g113
sg50
(lp116
I2
aI5
asbsS'x'
I2
sg22
(dp117
((I3
I-1
tI4
tp118
g113
s((I1
I-1
tp119
I1
tp120
g113
ssg39
(dp121
g118
g1
(g41
g3
NtRp122
(dp123
g6
g8
sg15
S''
sg16
g111
sg44
S'app1'
p124
sg17
I0
sg18
Nsg19
I0
sg46
g1
(g47
g3
NtRp125
(dp126
g44
g124
sg50
(lp127
I1
asbsS'x'
I3
sg22
(dp128
((I2
I0
tp129
I2
tp130
g124
ssg39
(dp131
g130
Nssg20
(F4.5
F0.8660254037844386
tp132
sg83
(lp133
sg85
I0
sg86
Nsg87
(F3.75
F0.4330127018922193
tp134
sg89
Nsg90
I4
sS'y'
I-1
sg91
I0
sbsg120
g1
(g41
g3
NtRp135
(dp136
g6
g8
sg15
S''
sg16
g111
sg44
S'app1'
p137
sg17
I0
sg18
Nsg19
I0
sg46
g1
(g47
g3
NtRp138
(dp139
g44
g137
sg50
(lp140
I5
asbsS'x'
I1
sg22
(dp141
((I1
I0
tI3
tp142
g137
ssg39
(dp143
g142
Nssg20
(F1.5
F-0.8660254037844386
tp144
sg83
(lp145
sg85
I0
sg86
Nsg87
(F2.25
F-0.4330127018922193
tp146
sg89
Nsg90
I1
sS'y'
I-1
sg91
I0
sbssg20
(F3
F0
tp147
sg83
(lp148
sg85
I0
sg86
Nsg87
(F2.25
F0.4330127018922193
tp149
sg89
Nsg90
I5
sS'y'
I-1
sg91
I0
sbssg20
(F1.5
F0.8660254037844386
tp150
sg83
(lp151
sg85
I0
sg86
Nsg87
(F0.75
F0.4330127018922193
tp152
sg89
Nsg90
I4
sS'y'
I0
sg91
I0
sbsg32
g1
(g41
g3
NtRp153
(dp154
g6
g8
sg15
S''
sg16
g13
sg44
S'app2'
p155
sg17
I0
sg18
Nsg19
I0
sg46
g1
(g47
g3
NtRp156
(dp157
g44
g155
sg50
(lp158
I2
aI5
asbsS'x'
I-1
sg22
(dp159
((I-2
I1
tp160
I1
tp161
g155
s((I0
I1
tI4
tp162
g155
ssg39
(dp163
g161
g1
(g41
g3
NtRp164
(dp165
g6
g8
sg15
S''
sg16
g153
sg44
S'app2'
p166
sg17
I0
sg18
Nsg19
I0
sg46
g1
(g47
g3
NtRp167
(dp168
g44
g166
sg50
(lp169
I3
aI4
asbsS'x'
I-2
sg22
(dp170
((I-3
I2
tp171
I2
tp172
g166
s((I-3
I1
tp173
I1
tp174
g166
ssg39
(dp175
g172
g1
(g41
g3
NtRp176
(dp177
g6
g8
sg15
S''
sg16
g164
sg44
S'app2'
p178
sg17
I0
sg18
Nsg19
I0
sg46
g1
(g47
g3
NtRp179
(dp180
g44
g178
sg50
(lp181
I1
asbsS'x'
I-3
sg22
(dp182
((I-3
I1
tp183
I0
tp184
g178
ssg39
(dp185
g184
Nssg20
(F-4.5
F0.8660254037844386
tp186
sg83
(lp187
sg85
I0
sg86
Nsg87
(F-3.75
F0.4330127018922193
tp188
sg89
Nsg90
I2
sS'y'
I2
sg91
I0
sbsg174
g1
(g41
g3
NtRp189
(dp190
g6
g8
sg15
S''
sg16
g164
sg44
S'app2'
p191
sg17
I0
sg18
Nsg19
I0
sg46
g1
(g47
g3
NtRp192
(dp193
g44
g191
sg50
(lp194
I2
asbsS'x'
I-3
sg22
(dp195
((I-3
I0
tp196
I0
tp197
g191
ssg39
(dp198
g197
Nssg20
(F-4.5
F-0.8660254037844386
tp199
sg83
(lp200
sg85
I0
sg86
Nsg87
(F-3.75
F-0.4330127018922193
tp201
sg89
Nsg90
I1
sS'y'
I1
sg91
I0
sbssg20
(F-3
F0
tp202
sg83
(lp203
sg85
I0
sg86
Nsg87
(F-2.25
F0.4330127018922193
tp204
sg89
Nsg90
I1
sS'y'
I1
sg91
I0
sbsg162
Nssg20
(F-1.5
F0.8660254037844386
tp205
sg83
(lp206
sg85
I0
sg86
Nsg87
(F-0.75
F0.4330127018922193
tp207
sg89
Nsg90
I2
sS'y'
I1
sg91
I0
sbsg35
g1
(g41
g3
NtRp208
(dp209
g6
g8
sg15
S''
sg16
g13
sg44
S'app1'
p210
sg17
I0
sg18
Nsg19
I0
sg46
g1
(g47
g3
NtRp211
(dp212
g44
g210
sg50
(lp213
I2
aI3
asbsS'x'
I-1
sg22
(dp214
((I-2
I0
tp215
I1
tp216
g210
s((I-1
I-1
tp217
I0
tp218
g210
ssg39
(dp219
g216
g1
(g41
g3
NtRp220
(dp221
g6
g8
sg15
S''
sg16
g208
sg44
S'app1'
p222
sg17
I0
sg18
Nsg19
I0
sg46
g1
(g47
g3
NtRp223
(dp224
g44
g222
sg50
(lp225
I1
aI3
asbsS'x'
I-2
sg22
(dp226
((I-3
I0
tp227
I1
tp228
g222
s((I-1
I-1
tI5
tp229
g222
ssg39
(dp230
g228
Nsg229
Nssg20
(F-3
F-1.7320508075688772
tp231
sg83
(lp232
sg85
I0
sg86
Nsg87
(F-2.25
F-1.299038105676658
tp233
sg89
Nsg90
I1
sS'y'
I0
sg91
I0
sbsg218
Nssg20
(F-1.5
F-0.8660254037844386
tp234
sg83
(lp235
sg85
I0
sg86
Nsg87
(F-0.75
F-0.4330127018922193
tp236
sg89
Nsg90
I1
sS'y'
I0
sg91
I0
sbsg37
g1
(g41
g3
NtRp237
(dp238
g6
g8
sg15
S''
sg16
g13
sg44
S'app0'
p239
sg17
I0
sg18
Nsg19
I0
sg46
g1
(g47
g3
NtRp240
(dp241
g44
g239
sg50
(lp242
I4
asbsS'x'
I0
sg22
(dp243
((I1
I1
tI4
tp244
g239
ssg39
(dp245
g244
g1
(g41
g3
NtRp246
(dp247
g6
g8
sg15
S''
sg16
g237
sg44
S'app0'
p248
sg17
I0
sg18
Nsg19
I0
sg46
g1
(g47
g3
NtRp249
(dp250
g44
g248
sg50
(lp251
I2
aI5
asbsS'x'
I1
sg22
(dp252
((I1
I0
tp253
I0
tp254
g248
s((I1
I2
tI3
tp255
g248
ssg39
(dp256
g254
Nsg255
g1
(g41
g3
NtRp257
(dp258
g6
g8
sg15
S''
sg16
g246
sg44
S'app0'
p259
sg17
I0
sg18
Nsg19
I0
sg46
g1
(g47
g3
NtRp260
(dp261
g44
g259
sg50
(lp262
I3
aI5
asbsS'x'
I1
sg22
(dp263
((I1
I3
tI3
tp264
g259
s((I2
I1
tI5
tp265
g259
ssg39
(dp266
g264
Nsg265
Nssg20
(F1.5
F4.3301270189221928
tp267
sg83
(lp268
sg85
I0
sg86
Nsg87
(F1.5
F3.4641016151377544
tp269
sg89
Nsg90
I3
sS'y'
I2
sg91
I0
sbssg20
(F1.5
F2.598076211353316
tp270
sg83
(lp271
sg85
I0
sg86
Nsg87
(F0.75
F2.1650635094610964
tp272
sg89
Nsg90
I4
sS'y'
I1
sg91
I0
sbssg20
(F0
F1.7320508075688772
tp273
sg83
(lp274
sg85
I0
sg86
Nsg87
(F0
F0.8660254037844386
tp275
sg89
Nsg90
I3
sS'y'
I1
sg91
I0
sbssS'nmouth'
p276
I0
sg83
(lp277
sg86
Nsg85
I0
sg87
(F0
F0.8660254037844386
tp278
sg89
Nsg90
I0
sS'x'
I0
sS'y'
I0
sg91
I0
sbsS'ncubes'
p279
I0
sS'plaster'
p280
I0
sS'maxcontrol'
p281
I12
sS'maxmutagen'
p282
I65
sS'takenbuds'
p283
(dp284
g53
g42
sg74
g67
sg35
g13
sg172
g164
sg174
g164
sg130
g122
sg27
g13
sg229
g220
sg218
g208
sg29
g13
sg162
g153
sg216
g208
sg24
g13
sg65
g57
sg264
g257
sg265
g257
sg184
g176
sg161
g153
sg254
g246
sg244
g237
sg108
g101
sg32
g13
sg255
g246
sg109
g101
sg118
g111
sg142
g135
sg228
g220
sg197
g189
sg55
g42
sg120
g111
sg37
g13
ssS'suckers'
p285
(lp286
sS'tick'
p287
F189.93199999998131
sS'organs'
p288
(dp289
(I0
I-2
tp290
g77
ssS'maxplaster'
p291
I20
sS'mask'
p292
NsS'mutagen'
p293
I0
sS'attackers'
p294
(lp295
sS'parts'
p296
(lp297
g13
ag153
ag101
ag164
ag237
ag42
ag208
ag111
ag189
ag135
ag122
ag246
ag257
ag57
ag220
ag67
ag176
ag77
asS'takentiles'
p298
(dp299
(I0
I-2
tp300
g77
s(I0
I0
tp301
g13
ssS'takenedges'
p302
(dp303
((I0
I0
tI2
tp304
g13
s(g171
I2
tp305
g164
s(g173
I1
tp306
g164
s(g129
I2
tp307
g122
s(g26
I0
tp308
g13
s(g217
I0
tp309
g208
s(g160
I1
tp310
g153
s(g215
I1
tp311
g208
s(g34
I1
tp312
g13
s((I1
I2
tI2
tp313
g257
s(g64
I0
tp314
g57
s((I1
I0
tI1
tp315
g101
s((I1
I1
tI0
tp316
g246
s(g183
I0
tp317
g176
s((I0
I0
tI1
tp318
g13
s((I-1
I1
tI1
tp319
g153
s((I-1
I-2
tI1
tp320
g67
s(g253
I0
tp321
g246
s((I0
I-1
tI1
tp322
g42
s((I0
I1
tI1
tp323
g237
s((I0
I0
tI0
tp324
g13
s((I1
I-1
tI0
tp325
g135
s((I1
I0
tI2
tp326
g101
s(g31
I2
tp327
g13
s((I1
I2
tI0
tp328
g257
s(g227
I1
tp329
g220
s((I2
I-1
tI1
tp330
g111
s(g196
I0
tp331
g189
s(g54
I1
tp332
g42
s(g119
I1
tp333
g111
s((I-2
I0
tI2
tp334
g220
ssS'shields'
p335
(lp336
sbsg15
g1
(csrc.status
Status
p337
g3
NtRp338
(dp339
S'healmeter'
p340
g1
(csrc.status
HealMeter
p341
g3
NtRp342
(dp343
S'rect'
p344
cpygame
__rect_constructor
p345
(I140
I310
I40
I20
tRp346
sS'amount'
p347
I20
sS'maxheight'
p348
I300
sS'bottom'
p349
(I160
I330
tp350
sS'baseimg'
p351
NsS'goalheight'
p352
I20
sS'height'
p353
I20
sbsg6
g8
sS'selected'
p354
NsS'controlrect'
p355
g345
(I42
I420
I110
I61
tRp356
sg281
I10
sg10
I5
sS'brainrect'
p357
g345
(I-20
I406
I80
I80
tRp358
sS'brainimg'
p359
NsS'mutagenmeter'
p360
g1
(csrc.status
MutagenMeter
p361
g3
NtRp362
(dp363
S'icons'
p364
(lp365
g1
(csrc.status
BuildIcon
p366
g3
NtRp367
(dp368
S'linepos'
p369
(I124
I310
tp370
sS'number'
p371
I0
sS'meter'
p372
g362
sS'visible'
p373
I01
sS'active'
p374
I01
sg344
g345
(I734
I292
I36
I36
tRp375
sS'pointedto'
p376
I00
sS'name'
p377
S'mutagenitor'
p378
sg86
Nsg354
I00
sg347
I20
sS'y'
I310
sS'x'
Nsbag1
(g366
g3
NtRp379
(dp380
g369
(I124
I295
tp381
sg371
I1
sg372
g362
sg373
I01
sg374
I00
sg344
g345
(I698
I277
I36
I36
tRp382
sg376
I00
sg377
S'eye'
p383
sg86
Nsg354
I00
sg347
I35
sS'y'
I295
sS'x'
Nsbag1
(g366
g3
NtRp384
(dp385
g369
(I124
I280
tp386
sg371
I2
sg372
g362
sg373
I01
sg374
I00
sg344
g345
(I662
I262
I36
I36
tRp387
sg376
I00
sg377
S'brain'
p388
sg86
Nsg354
I00
sg347
I50
sS'y'
I280
sS'x'
Nsbag1
(g366
g3
NtRp389
(dp390
g369
(I124
I265
tp391
sg371
I3
sg372
g362
sg373
I01
sg374
I00
sg344
g345
(I734
I247
I36
I36
tRp392
sg376
I00
sg377
S'mutagenpod'
p393
sg86
Nsg354
I00
sg347
I65
sS'y'
I265
sS'x'
Nsbag1
(g366
g3
NtRp394
(dp395
g377
S'plasteritor'
p396
sg86
Nsg354
I00
sg371
I4
sg372
g362
sg373
I00
sg347
I80
sg374
NsS'x'
Nsg376
I00
sbag1
(g366
g3
NtRp397
(dp398
g377
S'zotter'
p399
sg86
Nsg354
I00
sg371
I5
sg372
g362
sg373
I00
sg347
I95
sg374
NsS'x'
Nsg376
I00
sbag1
(g366
g3
NtRp400
(dp401
g377
S'cube'
p402
sg86
Nsg354
I00
sg371
I6
sg372
g362
sg373
I00
sg347
I110
sg374
NsS'x'
Nsg376
I00
sbag1
(g366
g3
NtRp403
(dp404
g377
S'plasterpod'
p405
sg86
Nsg354
I00
sg371
I7
sg372
g362
sg373
I00
sg347
I125
sg374
NsS'x'
Nsg376
I00
sbag1
(g366
g3
NtRp406
(dp407
g377
S'bulb'
p408
sg86
Nsg354
I00
sg371
I8
sg372
g362
sg373
I00
sg347
I140
sg374
NsS'x'
Nsg376
I00
sbag1
(g366
g3
NtRp409
(dp410
g377
S'shield'
p411
sg86
Nsg354
I00
sg371
I9
sg372
g362
sg373
I00
sg347
I155
sg374
NsS'x'
Nsg376
I00
sbag1
(g366
g3
NtRp412
(dp413
g377
S'eyebrain'
p414
sg86
Nsg354
I00
sg371
I10
sg372
g362
sg373
I00
sg347
I170
sg374
NsS'x'
Nsg376
I00
sbag1
(g366
g3
NtRp415
(dp416
g377
S'giantmutagenpod'
p417
sg86
Nsg354
I00
sg371
I11
sg372
g362
sg373
I00
sg347
I185
sg374
NsS'x'
Nsg376
I00
sbag1
(g366
g3
NtRp418
(dp419
g377
S'tripleeye'
p420
sg86
Nsg354
I00
sg371
I12
sg372
g362
sg373
I00
sg347
I200
sg374
NsS'x'
Nsg376
I00
sbag1
(g366
g3
NtRp421
(dp422
g377
S'giantbrain'
p423
sg86
Nsg354
I00
sg371
I13
sg372
g362
sg373
I00
sg347
I215
sg374
NsS'x'
Nsg376
I00
sbag1
(g366
g3
NtRp424
(dp425
g377
S'giantmutagenitor'
p426
sg86
Nsg354
I00
sg371
I14
sg372
g362
sg373
I00
sg347
I230
sg374
NsS'x'
Nsg376
I00
sbag1
(g366
g3
NtRp427
(dp428
g377
S'giantplasterpod'
p429
sg86
Nsg354
I00
sg371
I15
sg372
g362
sg373
I00
sg347
I245
sg374
NsS'x'
Nsg376
I00
sbag1
(g366
g3
NtRp430
(dp431
g377
S'giantplasteritor'
p432
sg86
Nsg354
I00
sg371
I16
sg372
g362
sg373
I00
sg347
I260
sg374
NsS'x'
Nsg376
I00
sbag1
(g366
g3
NtRp433
(dp434
g377
S'star'
p435
sg86
Nsg354
I00
sg371
I17
sg372
g362
sg373
I00
sg347
I275
sg374
NsS'x'
Nsg376
I00
sbasg349
(I124
I330
tp436
sg352
I65
sg353
F65
sg347
F30.228499999998927
sg348
I300
sg351
Nsg344
g345
(I104
I265
I40
I65
tRp437
sbsbsS'target'
p438
NsS'canbuild'
p439
I01
sS'clickat'
p440
(I628
I438
tp441
sS'twinklers'
p442
(lp443
g1
(csrc.twinkler
Twinkler
p444
g3
NtRp445
(dp446
S'claimed'
p447
I00
sS'sucker'
p448
NsS'ax'
p449
F-0.9394198871141155
sS'vx'
p450
F0.0076439288753546285
sS'ay'
p451
F3.2104948278242276
sS't'
F3.4800000000000009
sS'vy'
p452
F0.64967132403471384
sS'y'
F-0.67279413227908225
sS'x'
F7.0961292679697721
sbag1
(g444
g3
NtRp453
(dp454
g447
I00
sg448
Nsg449
F3.009186660574187
sg450
F0.15772869667529826
sg451
F-1.9235859215235758
sS't'
F3.1910000000000007
sg452
F0.39181259133073665
sS'y'
F6.444823012569934
sS'x'
F-2.9296499196793344
sbasS'paused'
p455
I00
sS'edgepoint'
p456
NsS'healmode'
p457
I00
sS'iconclicked'
p458
NsS'cutmode'
p459
I00
sS'parttobuild'
p460
NsS'pscreen'
p461
NsS'shots'
p462
(lp463
sS'panel'
p464
g1
(csrc.panel
Panel
p465
g3
NtRp466
(dp467
g6
g8
sS'tiles'
p468
(lp469
g1
(g47
g3
NtRp470
(dp471
g44
S'app0'
p472
sg50
(lp473
I3
aI4
asbag1
(g47
g3
NtRp474
(dp475
g44
S'app0'
p476
sg50
(lp477
I4
asbag1
(g47
g3
NtRp478
(dp479
g44
S'app1'
p480
sg50
(lp481
I3
aI4
asbag1
(g47
g3
NtRp482
(dp483
g44
S'app1'
p484
sg50
(lp485
I3
aI4
asbag1
(g47
g3
NtRp486
(dp487
g44
S'app2'
p488
sg50
(lp489
I2
aI3
asbag1
(g47
g3
NtRp490
(dp491
g44
S'app2'
p492
sg50
(lp493
I3
aI4
asbasg354
NsS'cuberect'
p494
g345
(I2
I-4
I80
I80
tRp495
sS'ncuberect'
p496
g345
(I82
I6
I27
I61
tRp497
sS'ages'
p498
(lp499
I0
aI0
aI0
aI0
aI0
aI0
asS'loadrate'
p500
F0.5
sS'centers'
p501
Nsbsb.